target datalayout = "e-m:e-p270:32:32-p271:32:32-p272:64:64-i64:64-i128:128-f80:128-n8:16:32:64-S128"
target triple = "x86_64-pc-linux-gnu"

%struct.OSSL_TIME = type { i64 }
%struct.ssl_session_st = type { i32, i64, [64 x i8], [512 x i8], i64, [32 x i8], i64, [32 x i8], ptr, ptr, i32, ptr, ptr, ptr, i64, %struct.OSSL_TIME, %struct.OSSL_TIME, %struct.OSSL_TIME, i32, ptr, i64, i32, %struct.crypto_ex_data_st, %struct.anon, ptr, ptr, i64, i32, ptr, ptr, ptr, %struct.CRYPTO_REF_COUNT }
%struct.crypto_ex_data_st = type { ptr, ptr }
%struct.anon = type { ptr, ptr, i64, i64, i32, i32, ptr, i64, i8 }
%struct.CRYPTO_REF_COUNT = type { i32 }

@.str = private unnamed_addr constant [26 x i8] c"../openssl/ssl/ssl_sess.c\00", align 1

; Function Attrs: inlinehint nounwind uwtable
define internal void @CRYPTO_FREE_REF(ptr noundef %0) #2 {
  %2 = alloca ptr, align 8
  store ptr %0, ptr %2, align 8, !tbaa !78
  ret void
}

; Function Attrs: inlinehint nounwind uwtable
define internal i32 @CRYPTO_DOWN_REF(ptr noundef %0, ptr noundef %1) #2 {
  %3 = alloca ptr, align 8
  %4 = alloca ptr, align 8
  %5 = alloca i32, align 4
  %6 = alloca i32, align 4
  store ptr %0, ptr %3, align 8, !tbaa !78
  store ptr %1, ptr %4, align 8, !tbaa !102
  %7 = load ptr, ptr %3, align 8, !tbaa !78
  %8 = getelementptr inbounds nuw %struct.CRYPTO_REF_COUNT, ptr %7, i32 0, i32 0
  store i32 1, ptr %5, align 4, !tbaa !11
  %9 = load i32, ptr %5, align 4
  %10 = atomicrmw sub ptr %8, i32 %9 release, align 4
  store i32 %10, ptr %6, align 4
  %11 = load i32, ptr %6, align 4, !tbaa !11
  %12 = sub nsw i32 %11, 1
  %13 = load ptr, ptr %4, align 8, !tbaa !102
  store i32 %12, ptr %13, align 4, !tbaa !11
  %14 = load ptr, ptr %4, align 8, !tbaa !102
  %15 = load i32, ptr %14, align 4, !tbaa !11
  %16 = icmp eq i32 %15, 0
  br i1 %16, label %17, label %18

17:                                               ; preds = %2
  fence acquire
  br label %18

18:                                               ; preds = %17, %2
  ret i32 1
}

; Function Attrs: nounwind uwtable
define void @SSL_SESSION_free(ptr noundef %0) #0 {
  %2 = alloca ptr, align 8
  %3 = alloca i32, align 4
  %4 = alloca i32, align 4
  store ptr %0, ptr %2, align 8, !tbaa !3
  call void @llvm.lifetime.start.p0(i64 4, ptr %3) #9
  %5 = load ptr, ptr %2, align 8, !tbaa !3
  %6 = icmp eq ptr %5, null
  br i1 %6, label %7, label %8

7:                                                ; preds = %1
  store i32 1, ptr %4, align 4
  br label %61

8:                                                ; preds = %1
  %9 = load ptr, ptr %2, align 8, !tbaa !3
  %10 = getelementptr inbounds nuw %struct.ssl_session_st, ptr %9, i32 0, i32 31
  %11 = call i32 @CRYPTO_DOWN_REF(ptr noundef %10, ptr noundef %3)
  %12 = load i32, ptr %3, align 4, !tbaa !11
  %13 = icmp sgt i32 %12, 0
  br i1 %13, label %14, label %15

14:                                               ; preds = %8
  store i32 1, ptr %4, align 4
  br label %61

15:                                               ; preds = %8
  %16 = load ptr, ptr %2, align 8, !tbaa !3
  %17 = load ptr, ptr %2, align 8, !tbaa !3
  %18 = getelementptr inbounds nuw %struct.ssl_session_st, ptr %17, i32 0, i32 22
  call void @CRYPTO_free_ex_data(i32 noundef 2, ptr noundef %16, ptr noundef %18)
  %19 = load ptr, ptr %2, align 8, !tbaa !3
  %20 = getelementptr inbounds nuw %struct.ssl_session_st, ptr %19, i32 0, i32 3
  %21 = getelementptr inbounds [512 x i8], ptr %20, i64 0, i64 0
  call void @OPENSSL_cleanse(ptr noundef %21, i64 noundef 512)
  %22 = load ptr, ptr %2, align 8, !tbaa !3
  %23 = getelementptr inbounds nuw %struct.ssl_session_st, ptr %22, i32 0, i32 5
  %24 = getelementptr inbounds [32 x i8], ptr %23, i64 0, i64 0
  call void @OPENSSL_cleanse(ptr noundef %24, i64 noundef 32)
  %25 = load ptr, ptr %2, align 8, !tbaa !3
  %26 = getelementptr inbounds nuw %struct.ssl_session_st, ptr %25, i32 0, i32 12
  %27 = load ptr, ptr %26, align 8, !tbaa !91
  call void @X509_free(ptr noundef %27)
  %28 = load ptr, ptr %2, align 8, !tbaa !3
  %29 = getelementptr inbounds nuw %struct.ssl_session_st, ptr %28, i32 0, i32 11
  %30 = load ptr, ptr %29, align 8, !tbaa !92
  call void @EVP_PKEY_free(ptr noundef %30)
  %31 = load ptr, ptr %2, align 8, !tbaa !3
  %32 = getelementptr inbounds nuw %struct.ssl_session_st, ptr %31, i32 0, i32 13
  %33 = load ptr, ptr %32, align 8, !tbaa !90
  call void @OSSL_STACK_OF_X509_free(ptr noundef %33)
  %34 = load ptr, ptr %2, align 8, !tbaa !3
  %35 = getelementptr inbounds nuw %struct.ssl_session_st, ptr %34, i32 0, i32 23
  %36 = getelementptr inbounds nuw %struct.anon, ptr %35, i32 0, i32 0
  %37 = load ptr, ptr %36, align 8, !tbaa !86
  call void @CRYPTO_free(ptr noundef %37, ptr noundef @.str, i32 noundef 860)
  %38 = load ptr, ptr %2, align 8, !tbaa !3
  %39 = getelementptr inbounds nuw %struct.ssl_session_st, ptr %38, i32 0, i32 23
  %40 = getelementptr inbounds nuw %struct.anon, ptr %39, i32 0, i32 1
  %41 = load ptr, ptr %40, align 8, !tbaa !87
  call void @CRYPTO_free(ptr noundef %41, ptr noundef @.str, i32 noundef 861)
  %42 = load ptr, ptr %2, align 8, !tbaa !3
  %43 = getelementptr inbounds nuw %struct.ssl_session_st, ptr %42, i32 0, i32 8
  %44 = load ptr, ptr %43, align 8, !tbaa !84
  call void @CRYPTO_free(ptr noundef %44, ptr noundef @.str, i32 noundef 863)
  %45 = load ptr, ptr %2, align 8, !tbaa !3
  %46 = getelementptr inbounds nuw %struct.ssl_session_st, ptr %45, i32 0, i32 9
  %47 = load ptr, ptr %46, align 8, !tbaa !85
  call void @CRYPTO_free(ptr noundef %47, ptr noundef @.str, i32 noundef 864)
  %48 = load ptr, ptr %2, align 8, !tbaa !3
  %49 = getelementptr inbounds nuw %struct.ssl_session_st, ptr %48, i32 0, i32 24
  %50 = load ptr, ptr %49, align 8, !tbaa !89
  call void @CRYPTO_free(ptr noundef %50, ptr noundef @.str, i32 noundef 867)
  %51 = load ptr, ptr %2, align 8, !tbaa !3
  %52 = getelementptr inbounds nuw %struct.ssl_session_st, ptr %51, i32 0, i32 23
  %53 = getelementptr inbounds nuw %struct.anon, ptr %52, i32 0, i32 6
  %54 = load ptr, ptr %53, align 8, !tbaa !88
  call void @CRYPTO_free(ptr noundef %54, ptr noundef @.str, i32 noundef 869)
  %55 = load ptr, ptr %2, align 8, !tbaa !3
  %56 = getelementptr inbounds nuw %struct.ssl_session_st, ptr %55, i32 0, i32 25
  %57 = load ptr, ptr %56, align 8, !tbaa !93
  call void @CRYPTO_free(ptr noundef %57, ptr noundef @.str, i32 noundef 870)
  %58 = load ptr, ptr %2, align 8, !tbaa !3
  %59 = getelementptr inbounds nuw %struct.ssl_session_st, ptr %58, i32 0, i32 31
  call void @CRYPTO_FREE_REF(ptr noundef %59)
  %60 = load ptr, ptr %2, align 8, !tbaa !3
  call void @CRYPTO_clear_free(ptr noundef %60, i64 noundef 928, ptr noundef @.str, i32 noundef 872)
  store i32 0, ptr %4, align 4
  br label %61

61:                                               ; preds = %15, %14, %7
  call void @llvm.lifetime.end.p0(i64 4, ptr %3) #9
  %62 = load i32, ptr %4, align 4
  switch i32 %62, label %64 [
    i32 0, label %63
    i32 1, label %63
  ]

63:                                               ; preds = %61, %61
  ret void

64:                                               ; preds = %61
  unreachable
}