; Function Attrs: nounwind uwtable
define void @SSL_SESSION_free(ptr noundef %0) #3 {
  %2 = icmp eq ptr %0, null
  br i1 %2, label %32, label %3

3:                                                ; preds = %1
  %4 = getelementptr inbounds nuw i8, ptr %0, i64 920
  %5 = atomicrmw sub ptr %4, i32 1 release, align 4
  %6 = icmp eq i32 %5, 1
  br i1 %6, label %CRYPTO_DOWN_REF.exit.thread, label %CRYPTO_DOWN_REF.exit

CRYPTO_DOWN_REF.exit.thread:                      ; preds = %3
  fence acquire
  br label %8

CRYPTO_DOWN_REF.exit:                             ; preds = %3
  %7 = icmp sgt i32 %5, 1
  br i1 %7, label %32, label %8

8:                                                ; preds = %CRYPTO_DOWN_REF.exit.thread, %CRYPTO_DOWN_REF.exit
  %9 = getelementptr inbounds nuw i8, ptr %0, i64 784
  tail call void @CRYPTO_free_ex_data(i32 noundef 2, ptr noundef nonnull %0, ptr noundef nonnull %9) #11
  %10 = getelementptr inbounds nuw i8, ptr %0, i64 80
  tail call void @OPENSSL_cleanse(ptr noundef nonnull %10, i64 noundef 512) #11
  %11 = getelementptr inbounds nuw i8, ptr %0, i64 600
  tail call void @OPENSSL_cleanse(ptr noundef nonnull %11, i64 noundef 32) #11
  %12 = getelementptr inbounds nuw i8, ptr %0, i64 704
  %13 = load ptr, ptr %12, align 8, !tbaa !78
  tail call void @X509_free(ptr noundef %13) #11
  %14 = getelementptr inbounds nuw i8, ptr %0, i64 696
  %15 = load ptr, ptr %14, align 8, !tbaa !80
  tail call void @EVP_PKEY_free(ptr noundef %15) #11
  %16 = getelementptr inbounds nuw i8, ptr %0, i64 712
  %17 = load ptr, ptr %16, align 8, !tbaa !79
  tail call void @OSSL_STACK_OF_X509_free(ptr noundef %17) #11
  %18 = getelementptr inbounds nuw i8, ptr %0, i64 800
  %19 = load ptr, ptr %18, align 8, !tbaa !83
  tail call void @CRYPTO_free(ptr noundef %19, ptr noundef nonnull @.str, i32 noundef 860) #11
  %20 = getelementptr inbounds nuw i8, ptr %0, i64 808
  %21 = load ptr, ptr %20, align 8, !tbaa !84
  tail call void @CRYPTO_free(ptr noundef %21, ptr noundef nonnull @.str, i32 noundef 861) #11
  %22 = getelementptr inbounds nuw i8, ptr %0, i64 672
  %23 = load ptr, ptr %22, align 8, !tbaa !81
  tail call void @CRYPTO_free(ptr noundef %23, ptr noundef nonnull @.str, i32 noundef 863) #11
  %24 = getelementptr inbounds nuw i8, ptr %0, i64 680
  %25 = load ptr, ptr %24, align 8, !tbaa !82
  tail call void @CRYPTO_free(ptr noundef %25, ptr noundef nonnull @.str, i32 noundef 864) #11
  %26 = getelementptr inbounds nuw i8, ptr %0, i64 864
  %27 = load ptr, ptr %26, align 8, !tbaa !87
  tail call void @CRYPTO_free(ptr noundef %27, ptr noundef nonnull @.str, i32 noundef 867) #11
  %28 = getelementptr inbounds nuw i8, ptr %0, i64 840
  %29 = load ptr, ptr %28, align 8, !tbaa !77
  tail call void @CRYPTO_free(ptr noundef %29, ptr noundef nonnull @.str, i32 noundef 869) #11
  %30 = getelementptr inbounds nuw i8, ptr %0, i64 872
  %31 = load ptr, ptr %30, align 8, !tbaa !88
  tail call void @CRYPTO_free(ptr noundef %31, ptr noundef nonnull @.str, i32 noundef 870) #11
  tail call void @CRYPTO_clear_free(ptr noundef nonnull %0, i64 noundef 928, ptr noundef nonnull @.str, i32 noundef 872) #11
  br label %32

32:                                               ; preds = %CRYPTO_DOWN_REF.exit, %1, %8
  ret void
}